; Function Attrs: nounwind uwtable
define dso_local void @pq_sendcountedtext(ptr noundef %0, ptr noundef %1, i32 noundef %2) local_unnamed_addr #0 {
  %4 = tail call ptr @pg_server_to_client(ptr noundef %1, i32 noundef %2) #9
  %.not = icmp eq ptr %4, %1
  br i1 %.not, label %15, label %5

5:                                                ; preds = %3
  %6 = tail call i64 @strlen(ptr noundef nonnull dereferenceable(1) %4) #10
  %7 = trunc i64 %6 to i32
  tail call void @enlargeStringInfo(ptr noundef %0, i32 noundef 4) #9
  tail call void @llvm.experimental.noalias.scope.decl(metadata !4)
  %8 = tail call i32 @llvm.bswap.i32(i32 %7)
  %9 = load ptr, ptr %0, align 8, !alias.scope !4
  %10 = getelementptr inbounds nuw i8, ptr %0, i64 8
  %11 = load i32, ptr %10, align 8, !alias.scope !4
  %12 = sext i32 %11 to i64
  %13 = getelementptr inbounds i8, ptr %9, i64 %12
  store i32 %8, ptr %13, align 1, !noalias !4
  %14 = add i32 %11, 4
  store i32 %14, ptr %10, align 8, !alias.scope !4
  tail call void @appendBinaryStringInfoNT(ptr noundef nonnull %0, ptr noundef nonnull %4, i32 noundef %7) #9
  tail call void @pfree(ptr noundef nonnull %4) #9
  br label %23

15:                                               ; preds = %3
  tail call void @enlargeStringInfo(ptr noundef %0, i32 noundef 4) #9
  tail call void @llvm.experimental.noalias.scope.decl(metadata !7)
  %16 = tail call i32 @llvm.bswap.i32(i32 %2)
  %17 = load ptr, ptr %0, align 8, !alias.scope !7
  %18 = getelementptr inbounds nuw i8, ptr %0, i64 8
  %19 = load i32, ptr %18, align 8, !alias.scope !7
  %20 = sext i32 %19 to i64
  %21 = getelementptr inbounds i8, ptr %17, i64 %20
  store i32 %16, ptr %21, align 1, !noalias !7
  %22 = add i32 %19, 4
  store i32 %22, ptr %18, align 8, !alias.scope !7
  tail call void @appendBinaryStringInfoNT(ptr noundef nonnull %0, ptr noundef %1, i32 noundef %2) #9
  br label %23

23:                                               ; preds = %15, %5
  ret void
}